target datalayout = "e-m:e-p270:32:32-p271:32:32-p272:64:64-i64:64-i128:128-f80:128-n8:16:32:64-S128"
target triple = "x86_64-pc-linux-gnu"

; Function Attrs: null_pointer_is_valid sspstrong uwtable
define internal i32 @get_stun_message_len(ptr noundef %0, ptr noundef %1, i32 noundef %2, ptr noundef %3) #0 {
  %5 = alloca i32, align 4
  %6 = alloca ptr, align 8
  %7 = alloca ptr, align 8
  %8 = alloca i32, align 4
  %9 = alloca ptr, align 8
  %10 = alloca i16, align 2
  %11 = alloca i32, align 4
  %12 = alloca i32, align 4
  %13 = alloca i32, align 4
  store ptr %0, ptr %6, align 8
  store ptr %1, ptr %7, align 8
  store i32 %2, ptr %8, align 4
  store ptr %3, ptr %9, align 8
  call void @llvm.lifetime.start.p0(i64 2, ptr %10) #7
  call void @llvm.lifetime.start.p0(i64 4, ptr %11) #7
  call void @llvm.lifetime.start.p0(i64 4, ptr %12) #7
  %14 = load ptr, ptr %7, align 8
  %15 = call i32 @tvb_captured_length(ptr noundef %14)
  store i32 %15, ptr %12, align 4
  %16 = load i32, ptr %12, align 4
  %17 = icmp uge i32 %16, 10
  br i1 %17, label %18, label %28

18:                                               ; preds = %4
  %19 = load ptr, ptr %7, align 8
  %20 = call i32 @tvb_get_ntohl(ptr noundef %19, i32 noundef 6)
  %21 = icmp eq i32 %20, 554869826
  br i1 %21, label %22, label %28

22:                                               ; preds = %18
  %23 = load ptr, ptr %7, align 8
  %24 = load i32, ptr %8, align 4
  %25 = call zeroext i16 @tvb_get_ntohs(ptr noundef %23, i32 noundef %24)
  %26 = zext i16 %25 to i32
  %27 = add i32 %26, 2
  store i32 %27, ptr %5, align 4
  store i32 1, ptr %13, align 4
  br label %49

28:                                               ; preds = %18, %4
  %29 = load ptr, ptr %7, align 8
  %30 = load i32, ptr %8, align 4
  %31 = call zeroext i16 @tvb_get_ntohs(ptr noundef %29, i32 noundef %30)
  store i16 %31, ptr %10, align 2
  %32 = load ptr, ptr %7, align 8
  %33 = load i32, ptr %8, align 4
  %34 = add i32 %33, 2
  %35 = call zeroext i16 @tvb_get_ntohs(ptr noundef %32, i32 noundef %34)
  %36 = zext i16 %35 to i32
  store i32 %36, ptr %11, align 4
  %37 = load i16, ptr %10, align 2
  %38 = zext i16 %37 to i32
  %39 = and i32 %38, 49152
  %40 = icmp ne i32 %39, 0
  br i1 %40, label %41, label %46

41:                                               ; preds = %28
  %42 = load i32, ptr %11, align 4
  %43 = add i32 %42, 4
  %44 = add i32 %43, 3
  %45 = and i32 %44, -4
  store i32 %45, ptr %5, align 4
  store i32 1, ptr %13, align 4
  br label %49

46:                                               ; preds = %28
  %47 = load i32, ptr %11, align 4
  %48 = add i32 %47, 20
  store i32 %48, ptr %5, align 4
  store i32 1, ptr %13, align 4
  br label %49

49:                                               ; preds = %46, %41, %22
  call void @llvm.lifetime.end.p0(i64 4, ptr %12) #7
  call void @llvm.lifetime.end.p0(i64 4, ptr %11) #7
  call void @llvm.lifetime.end.p0(i64 2, ptr %10) #7
  %50 = load i32, ptr %5, align 4
  ret i32 %50
}