; Function Attrs: null_pointer_is_valid sspstrong uwtable
define internal range(i32 2, 65556) i32 @get_stun_message_len(ptr readnone captures(none) %0, ptr noundef %1, i32 noundef %2, ptr readnone captures(none) %3) #0 {
  %5 = tail call i32 @tvb_captured_length(ptr noundef %1)
  %6 = icmp ugt i32 %5, 9
  br i1 %6, label %7, label %14

7:                                                ; preds = %4
  %8 = tail call i32 @tvb_get_ntohl(ptr noundef %1, i32 noundef 6)
  %9 = icmp eq i32 %8, 554869826
  br i1 %9, label %10, label %14

10:                                               ; preds = %7
  %11 = tail call zeroext i16 @tvb_get_ntohs(ptr noundef %1, i32 noundef %2)
  %12 = zext i16 %11 to i32
  %13 = add nuw nsw i32 %12, 2
  br label %24

14:                                               ; preds = %7, %4
  %15 = tail call zeroext i16 @tvb_get_ntohs(ptr noundef %1, i32 noundef %2)
  %16 = add i32 %2, 2
  %17 = tail call zeroext i16 @tvb_get_ntohs(ptr noundef %1, i32 noundef %16)
  %18 = zext i16 %17 to i32
  %.not = icmp ult i16 %15, 16384
  br i1 %.not, label %22, label %19

19:                                               ; preds = %14
  %20 = add nuw nsw i32 %18, 7
  %21 = and i32 %20, 131068
  br label %24

22:                                               ; preds = %14
  %23 = add nuw nsw i32 %18, 20
  br label %24

24:                                               ; preds = %22, %19, %10
  %.0 = phi i32 [ %13, %10 ], [ %21, %19 ], [ %23, %22 ]
  ret i32 %.0
}